target datalayout = "e-m:e-p270:32:32-p271:32:32-p272:64:64-i64:64-i128:128-f80:128-n8:16:32:64-S128"
target triple = "x86_64-pc-linux-gnu"

; Function Attrs: noinline nounwind uwtable
define internal void @get_scaler_datas(i32 noundef %0, i32 noundef %1, ptr noundef %2, ptr noundef %3, ptr noundef %4, ptr noundef %5) #3 {
  %7 = alloca i32, align 4
  %8 = alloca i32, align 4
  %9 = alloca ptr, align 8
  %10 = alloca ptr, align 8
  %11 = alloca ptr, align 8
  %12 = alloca ptr, align 8
  %13 = alloca i32, align 4
  %14 = alloca i32, align 4
  %15 = alloca i64, align 8
  %16 = alloca i32, align 4
  %17 = alloca [2 x i64], align 16
  %18 = alloca i32, align 4
  store i32 %0, ptr %7, align 4
  store i32 %1, ptr %8, align 4
  store ptr %2, ptr %9, align 8
  store ptr %3, ptr %10, align 8
  store ptr %4, ptr %11, align 8
  store ptr %5, ptr %12, align 8
  call void @llvm.lifetime.start.p0(i64 4, ptr %13) #5
  %19 = load i32, ptr %7, align 4
  %20 = shl i32 %19, 16
  %21 = load i32, ptr %8, align 4
  %22 = udiv i32 %20, %21
  store i32 %22, ptr %13, align 4
  call void @llvm.lifetime.start.p0(i64 4, ptr %14) #5
  store i32 32768, ptr %14, align 4
  call void @llvm.lifetime.start.p0(i64 8, ptr %15) #5
  call void @llvm.lifetime.start.p0(i64 4, ptr %16) #5
  call void @llvm.lifetime.start.p0(i64 16, ptr %17) #5
  %23 = load i32, ptr %13, align 4
  %24 = sext i32 %23 to i64
  %25 = load i32, ptr %14, align 4
  %26 = ashr i32 %25, 16
  %27 = sext i32 %26 to i64
  %28 = mul nsw i64 %24, %27
  %29 = getelementptr inbounds [2 x i64], ptr %17, i64 0, i64 0
  store i64 %28, ptr %29, align 16
  %30 = load i32, ptr %13, align 4
  %31 = sext i32 %30 to i64
  %32 = load i32, ptr %14, align 4
  %33 = and i32 %32, 65535
  %34 = sext i32 %33 to i64
  %35 = mul nsw i64 %31, %34
  %36 = getelementptr inbounds [2 x i64], ptr %17, i64 0, i64 1
  store i64 %35, ptr %36, align 8
  %37 = getelementptr inbounds [2 x i64], ptr %17, i64 0, i64 0
  %38 = load i64, ptr %37, align 16
  %39 = getelementptr inbounds [2 x i64], ptr %17, i64 0, i64 1
  %40 = load i64, ptr %39, align 8
  %41 = add nsw i64 %40, 32768
  %42 = ashr i64 %41, 16
  %43 = add nsw i64 %38, %42
  %44 = trunc i64 %43 to i32
  store i32 %44, ptr %14, align 4
  %45 = load i32, ptr %14, align 4
  %46 = sub i32 %45, 32768
  store i32 %46, ptr %14, align 4
  %47 = load i32, ptr %14, align 4
  %48 = sext i32 %47 to i64
  %49 = load ptr, ptr %9, align 8
  store i64 %48, ptr %49, align 8
  %50 = load i32, ptr %13, align 4
  %51 = load ptr, ptr %10, align 8
  store i32 %50, ptr %51, align 4
  %52 = load ptr, ptr %11, align 8
  store i32 0, ptr %52, align 4
  %53 = load ptr, ptr %12, align 8
  store i32 0, ptr %53, align 4
  %54 = load i32, ptr %14, align 4
  %55 = sext i32 %54 to i64
  store i64 %55, ptr %15, align 8
  store i32 0, ptr %16, align 4
  br label %56

56:                                               ; preds = %85, %6
  %57 = load i32, ptr %16, align 4
  %58 = load i32, ptr %8, align 4
  %59 = icmp slt i32 %57, %58
  br i1 %59, label %60, label %88

60:                                               ; preds = %56
  %61 = load i64, ptr %15, align 8
  %62 = icmp slt i64 %61, 0
  br i1 %62, label %63, label %67

63:                                               ; preds = %60
  %64 = load ptr, ptr %11, align 8
  %65 = load i32, ptr %64, align 4
  %66 = add nsw i32 %65, 1
  store i32 %66, ptr %64, align 4
  br label %80

67:                                               ; preds = %60
  call void @llvm.lifetime.start.p0(i64 4, ptr %18) #5
  %68 = load i64, ptr %15, align 8
  %69 = trunc i64 %68 to i32
  %70 = lshr i32 %69, 16
  store i32 %70, ptr %18, align 4
  %71 = load i32, ptr %18, align 4
  %72 = load i32, ptr %7, align 4
  %73 = sub nsw i32 %72, 2
  %74 = icmp sgt i32 %71, %73
  br i1 %74, label %75, label %79

75:                                               ; preds = %67
  %76 = load ptr, ptr %12, align 8
  %77 = load i32, ptr %76, align 4
  %78 = add nsw i32 %77, 1
  store i32 %78, ptr %76, align 4
  br label %79

79:                                               ; preds = %75, %67
  call void @llvm.lifetime.end.p0(i64 4, ptr %18) #5
  br label %80

80:                                               ; preds = %79, %63
  %81 = load i32, ptr %13, align 4
  %82 = sext i32 %81 to i64
  %83 = load i64, ptr %15, align 8
  %84 = add nsw i64 %83, %82
  store i64 %84, ptr %15, align 8
  br label %85

85:                                               ; preds = %80
  %86 = load i32, ptr %16, align 4
  %87 = add nsw i32 %86, 1
  store i32 %87, ptr %16, align 4
  br label %56, !llvm.loop !10

88:                                               ; preds = %56
  call void @llvm.lifetime.end.p0(i64 16, ptr %17) #5
  call void @llvm.lifetime.end.p0(i64 4, ptr %16) #5
  call void @llvm.lifetime.end.p0(i64 8, ptr %15) #5
  call void @llvm.lifetime.end.p0(i64 4, ptr %14) #5
  call void @llvm.lifetime.end.p0(i64 4, ptr %13) #5
  ret void
}