; Function Attrs: nofree noinline norecurse nosync nounwind memory(readwrite, inaccessiblemem: none) uwtable
define internal fastcc void @get_scaler_datas(i32 noundef %0, i32 noundef %1, ptr noundef nonnull writeonly captures(none) initializes((0, 8)) %2, ptr noundef nonnull writeonly captures(none) initializes((0, 4)) %3, ptr noundef nonnull captures(none) initializes((0, 4)) %4, ptr noundef nonnull captures(none) initializes((0, 4)) %5) unnamed_addr #4 {
  %7 = shl i32 %0, 16
  %8 = udiv i32 %7, %1
  %9 = sext i32 %8 to i64
  %10 = shl nsw i64 %9, 31
  %sext = add nsw i64 %10, -140735340871680
  %11 = ashr i64 %sext, 32
  store i64 %11, ptr %2, align 8
  store i32 %8, ptr %3, align 4
  store i32 0, ptr %4, align 4
  store i32 0, ptr %5, align 4
  %12 = icmp sgt i32 %1, 0
  br i1 %12, label %.lr.ph, label %._crit_edge

.lr.ph:                                           ; preds = %6
  %13 = add nsw i32 %0, -2
  br label %14

14:                                               ; preds = %.lr.ph, %22
  %.026 = phi i64 [ %11, %.lr.ph ], [ %23, %22 ]
  %.02425 = phi i32 [ 0, %.lr.ph ], [ %24, %22 ]
  %15 = icmp slt i64 %.026, 0
  br i1 %15, label %.sink.split, label %16

16:                                               ; preds = %14
  %17 = trunc i64 %.026 to i32
  %18 = lshr i32 %17, 16
  %19 = icmp sgt i32 %18, %13
  br i1 %19, label %.sink.split, label %22

.sink.split:                                      ; preds = %16, %14
  %.sink = phi ptr [ %4, %14 ], [ %5, %16 ]
  %20 = load i32, ptr %.sink, align 4
  %21 = add nsw i32 %20, 1
  store i32 %21, ptr %.sink, align 4
  br label %22

22:                                               ; preds = %.sink.split, %16
  %23 = add nsw i64 %.026, %9
  %24 = add nuw nsw i32 %.02425, 1
  %exitcond.not = icmp eq i32 %24, %1
  br i1 %exitcond.not, label %._crit_edge, label %14, !llvm.loop !16

._crit_edge:                                      ; preds = %22, %6
  ret void
}